target datalayout = "e-m:e-p270:32:32-p271:32:32-p272:64:64-i64:64-i128:128-f80:128-n8:16:32:64-S128"
target triple = "x86_64-pc-linux-gnu"

%struct.cgroup_conf_t = type { ptr, ptr, i8, i8, float, float, i64, i8, float, float, i64, i8, ptr, i8, i8, i8, i8, i64 }

@.str.14 = private unnamed_addr constant [32 x i8] c"%s: pthread_rwlock_unlock(): %m\00", align 1
@slurm_cgroup_conf = dso_local global %struct.cgroup_conf_t zeroinitializer, align 8
@.str.15 = private unnamed_addr constant [32 x i8] c"%s: pthread_rwlock_rdlock(): %m\00", align 1
@__func__.cgroup_get_conf_list = private unnamed_addr constant [21 x i8] c"cgroup_get_conf_list\00", align 1
@.str.16 = private unnamed_addr constant [17 x i8] c"CgroupMountpoint\00", align 1
@.str.17 = private unnamed_addr constant [3 x i8] c"%s\00", align 1
@.str.18 = private unnamed_addr constant [15 x i8] c"ConstrainCores\00", align 1
@.str.19 = private unnamed_addr constant [18 x i8] c"ConstrainRAMSpace\00", align 1
@.str.20 = private unnamed_addr constant [16 x i8] c"AllowedRAMSpace\00", align 1
@.str.21 = private unnamed_addr constant [7 x i8] c"%.1f%%\00", align 1
@.str.22 = private unnamed_addr constant [14 x i8] c"MaxRAMPercent\00", align 1
@.str.23 = private unnamed_addr constant [12 x i8] c"MinRAMSpace\00", align 1
@.str.24 = private unnamed_addr constant [6 x i8] c"%luMB\00", align 1
@.str.25 = private unnamed_addr constant [19 x i8] c"ConstrainSwapSpace\00", align 1
@.str.26 = private unnamed_addr constant [17 x i8] c"AllowedSwapSpace\00", align 1
@.str.27 = private unnamed_addr constant [15 x i8] c"MaxSwapPercent\00", align 1
@.str.28 = private unnamed_addr constant [17 x i8] c"ConstrainDevices\00", align 1
@.str.29 = private unnamed_addr constant [13 x i8] c"CgroupPlugin\00", align 1
@.str.30 = private unnamed_addr constant [14 x i8] c"IgnoreSystemd\00", align 1
@.str.31 = private unnamed_addr constant [23 x i8] c"IgnoreSystemdOnFailure\00", align 1
@.str.32 = private unnamed_addr constant [18 x i8] c"EnableControllers\00", align 1
@.str.33 = private unnamed_addr constant [17 x i8] c"MemorySwappiness\00", align 1
@.str.34 = private unnamed_addr constant [4 x i8] c"%lu\00", align 1
@.str.35 = private unnamed_addr constant [7 x i8] c"(null)\00", align 1
@.str.36 = private unnamed_addr constant [15 x i8] c"SystemdTimeout\00", align 1
@.str.37 = private unnamed_addr constant [7 x i8] c"%lu ms\00", align 1
@cg_conf_lock = internal global { { i32, i32, i32, i32, i32, i32, i32, i32, i8, [7 x i8], i64, i32, [4 x i8] } } zeroinitializer, align 8

; Function Attrs: nounwind uwtable
define dso_local ptr @cgroup_get_conf_list() #0 {
  %1 = alloca ptr, align 8
  %2 = alloca ptr, align 8
  %3 = alloca i32, align 4
  %4 = alloca i32, align 4
  call void @llvm.lifetime.start.p0(i64 8, ptr %1) #9
  call void @llvm.lifetime.start.p0(i64 8, ptr %2) #9
  store ptr @slurm_cgroup_conf, ptr %2, align 8
  %5 = call ptr @list_create(ptr noundef @destroy_config_key_pair)
  store ptr %5, ptr %1, align 8
  br label %6

6:                                                ; preds = %0
  call void @llvm.lifetime.start.p0(i64 4, ptr %3) #9
  %7 = call i32 @pthread_rwlock_rdlock(ptr noundef @cg_conf_lock) #9
  store i32 %7, ptr %3, align 4
  %8 = load i32, ptr %3, align 4
  %9 = icmp ne i32 %8, 0
  br i1 %9, label %10, label %13

10:                                               ; preds = %6
  %11 = load i32, ptr %3, align 4
  %12 = call ptr @__errno_location() #10
  store i32 %11, ptr %12, align 4
  call void (ptr, ...) @fatal_abort(ptr noundef @.str.15, ptr noundef @__func__.cgroup_get_conf_list) #11
  unreachable

13:                                               ; preds = %6
  call void @llvm.lifetime.end.p0(i64 4, ptr %3) #9
  br label %14

14:                                               ; preds = %13
  br label %15

15:                                               ; preds = %14
  %16 = load ptr, ptr %1, align 8
  %17 = load ptr, ptr %2, align 8
  %18 = getelementptr inbounds nuw %struct.cgroup_conf_t, ptr %17, i32 0, i32 0
  %19 = load ptr, ptr %18, align 8
  call void (ptr, ptr, ptr, ...) @add_key_pair(ptr noundef %16, ptr noundef @.str.16, ptr noundef @.str.17, ptr noundef %19)
  %20 = load ptr, ptr %1, align 8
  %21 = load ptr, ptr %2, align 8
  %22 = getelementptr inbounds nuw %struct.cgroup_conf_t, ptr %21, i32 0, i32 2
  %23 = load i8, ptr %22, align 8, !range !8, !noundef !9
  %24 = trunc i8 %23 to i1
  call void @add_key_pair_bool(ptr noundef %20, ptr noundef @.str.18, i1 noundef zeroext %24)
  %25 = load ptr, ptr %1, align 8
  %26 = load ptr, ptr %2, align 8
  %27 = getelementptr inbounds nuw %struct.cgroup_conf_t, ptr %26, i32 0, i32 3
  %28 = load i8, ptr %27, align 1, !range !8, !noundef !9
  %29 = trunc i8 %28 to i1
  call void @add_key_pair_bool(ptr noundef %25, ptr noundef @.str.19, i1 noundef zeroext %29)
  %30 = load ptr, ptr %1, align 8
  %31 = load ptr, ptr %2, align 8
  %32 = getelementptr inbounds nuw %struct.cgroup_conf_t, ptr %31, i32 0, i32 4
  %33 = load float, ptr %32, align 4
  %34 = fpext float %33 to double
  call void (ptr, ptr, ptr, ...) @add_key_pair(ptr noundef %30, ptr noundef @.str.20, ptr noundef @.str.21, double noundef %34)
  %35 = load ptr, ptr %1, align 8
  %36 = load ptr, ptr %2, align 8
  %37 = getelementptr inbounds nuw %struct.cgroup_conf_t, ptr %36, i32 0, i32 5
  %38 = load float, ptr %37, align 8
  %39 = fpext float %38 to double
  call void (ptr, ptr, ptr, ...) @add_key_pair(ptr noundef %35, ptr noundef @.str.22, ptr noundef @.str.21, double noundef %39)
  %40 = load ptr, ptr %1, align 8
  %41 = load ptr, ptr %2, align 8
  %42 = getelementptr inbounds nuw %struct.cgroup_conf_t, ptr %41, i32 0, i32 6
  %43 = load i64, ptr %42, align 8
  call void (ptr, ptr, ptr, ...) @add_key_pair(ptr noundef %40, ptr noundef @.str.23, ptr noundef @.str.24, i64 noundef %43)
  %44 = load ptr, ptr %1, align 8
  %45 = load ptr, ptr %2, align 8
  %46 = getelementptr inbounds nuw %struct.cgroup_conf_t, ptr %45, i32 0, i32 7
  %47 = load i8, ptr %46, align 8, !range !8, !noundef !9
  %48 = trunc i8 %47 to i1
  call void @add_key_pair_bool(ptr noundef %44, ptr noundef @.str.25, i1 noundef zeroext %48)
  %49 = load ptr, ptr %1, align 8
  %50 = load ptr, ptr %2, align 8
  %51 = getelementptr inbounds nuw %struct.cgroup_conf_t, ptr %50, i32 0, i32 8
  %52 = load float, ptr %51, align 4
  %53 = fpext float %52 to double
  call void (ptr, ptr, ptr, ...) @add_key_pair(ptr noundef %49, ptr noundef @.str.26, ptr noundef @.str.21, double noundef %53)
  %54 = load ptr, ptr %1, align 8
  %55 = load ptr, ptr %2, align 8
  %56 = getelementptr inbounds nuw %struct.cgroup_conf_t, ptr %55, i32 0, i32 9
  %57 = load float, ptr %56, align 8
  %58 = fpext float %57 to double
  call void (ptr, ptr, ptr, ...) @add_key_pair(ptr noundef %54, ptr noundef @.str.27, ptr noundef @.str.21, double noundef %58)
  %59 = load ptr, ptr %1, align 8
  %60 = load ptr, ptr %2, align 8
  %61 = getelementptr inbounds nuw %struct.cgroup_conf_t, ptr %60, i32 0, i32 11
  %62 = load i8, ptr %61, align 8, !range !8, !noundef !9
  %63 = trunc i8 %62 to i1
  call void @add_key_pair_bool(ptr noundef %59, ptr noundef @.str.28, i1 noundef zeroext %63)
  %64 = load ptr, ptr %1, align 8
  %65 = load ptr, ptr %2, align 8
  %66 = getelementptr inbounds nuw %struct.cgroup_conf_t, ptr %65, i32 0, i32 12
  %67 = load ptr, ptr %66, align 8
  call void (ptr, ptr, ptr, ...) @add_key_pair(ptr noundef %64, ptr noundef @.str.29, ptr noundef @.str.17, ptr noundef %67)
  %68 = load ptr, ptr %1, align 8
  %69 = load ptr, ptr %2, align 8
  %70 = getelementptr inbounds nuw %struct.cgroup_conf_t, ptr %69, i32 0, i32 13
  %71 = load i8, ptr %70, align 8, !range !8, !noundef !9
  %72 = trunc i8 %71 to i1
  call void @add_key_pair_bool(ptr noundef %68, ptr noundef @.str.30, i1 noundef zeroext %72)
  %73 = load ptr, ptr %1, align 8
  %74 = load ptr, ptr %2, align 8
  %75 = getelementptr inbounds nuw %struct.cgroup_conf_t, ptr %74, i32 0, i32 14
  %76 = load i8, ptr %75, align 1, !range !8, !noundef !9
  %77 = trunc i8 %76 to i1
  call void @add_key_pair_bool(ptr noundef %73, ptr noundef @.str.31, i1 noundef zeroext %77)
  %78 = load ptr, ptr %1, align 8
  %79 = load ptr, ptr %2, align 8
  %80 = getelementptr inbounds nuw %struct.cgroup_conf_t, ptr %79, i32 0, i32 15
  %81 = load i8, ptr %80, align 2, !range !8, !noundef !9
  %82 = trunc i8 %81 to i1
  call void @add_key_pair_bool(ptr noundef %78, ptr noundef @.str.32, i1 noundef zeroext %82)
  %83 = load ptr, ptr %2, align 8
  %84 = getelementptr inbounds nuw %struct.cgroup_conf_t, ptr %83, i32 0, i32 10
  %85 = load i64, ptr %84, align 8
  %86 = icmp ne i64 %85, -2
  br i1 %86, label %87, label %92

87:                                               ; preds = %15
  %88 = load ptr, ptr %1, align 8
  %89 = load ptr, ptr %2, align 8
  %90 = getelementptr inbounds nuw %struct.cgroup_conf_t, ptr %89, i32 0, i32 10
  %91 = load i64, ptr %90, align 8
  call void (ptr, ptr, ptr, ...) @add_key_pair(ptr noundef %88, ptr noundef @.str.33, ptr noundef @.str.34, i64 noundef %91)
  br label %94

92:                                               ; preds = %15
  %93 = load ptr, ptr %1, align 8
  call void (ptr, ptr, ptr, ...) @add_key_pair(ptr noundef %93, ptr noundef @.str.33, ptr noundef @.str.35)
  br label %94

94:                                               ; preds = %92, %87
  %95 = load ptr, ptr %1, align 8
  %96 = load ptr, ptr %2, align 8
  %97 = getelementptr inbounds nuw %struct.cgroup_conf_t, ptr %96, i32 0, i32 17
  %98 = load i64, ptr %97, align 8
  call void (ptr, ptr, ptr, ...) @add_key_pair(ptr noundef %95, ptr noundef @.str.36, ptr noundef @.str.37, i64 noundef %98)
  br label %99

99:                                               ; preds = %94
  call void @llvm.lifetime.start.p0(i64 4, ptr %4) #9
  %100 = call i32 @pthread_rwlock_unlock(ptr noundef @cg_conf_lock) #9
  store i32 %100, ptr %4, align 4
  %101 = load i32, ptr %4, align 4
  %102 = icmp ne i32 %101, 0
  br i1 %102, label %103, label %106

103:                                              ; preds = %99
  %104 = load i32, ptr %4, align 4
  %105 = call ptr @__errno_location() #10
  store i32 %104, ptr %105, align 4
  call void (ptr, ...) @fatal_abort(ptr noundef @.str.14, ptr noundef @__func__.cgroup_get_conf_list) #11
  unreachable

106:                                              ; preds = %99
  call void @llvm.lifetime.end.p0(i64 4, ptr %4) #9
  br label %107

107:                                              ; preds = %106
  br label %108

108:                                              ; preds = %107
  %109 = load ptr, ptr %1, align 8
  call void @list_sort(ptr noundef %109, ptr noundef @sort_key_pairs)
  %110 = load ptr, ptr %1, align 8
  call void @llvm.lifetime.end.p0(i64 8, ptr %2) #9
  call void @llvm.lifetime.end.p0(i64 8, ptr %1) #9
  ret ptr %110
}