; Function Attrs: nounwind uwtable
define dso_local ptr @cgroup_get_conf_list() local_unnamed_addr #0 {
  %1 = tail call ptr @list_create(ptr noundef nonnull @destroy_config_key_pair) #12
  %2 = tail call i32 @pthread_rwlock_rdlock(ptr noundef nonnull @cg_conf_lock) #12
  %.not = icmp eq i32 %2, 0
  br i1 %.not, label %5, label %3

3:                                                ; preds = %0
  %4 = tail call ptr @__errno_location() #13
  store i32 %2, ptr %4, align 4
  tail call void (ptr, ...) @fatal_abort(ptr noundef nonnull @.str.15, ptr noundef nonnull @__func__.cgroup_get_conf_list) #14
  unreachable

5:                                                ; preds = %0
  %6 = load ptr, ptr @slurm_cgroup_conf, align 8
  tail call void (ptr, ptr, ptr, ...) @add_key_pair(ptr noundef %1, ptr noundef nonnull @.str.16, ptr noundef nonnull @.str.17, ptr noundef %6) #12
  %7 = load i8, ptr getelementptr inbounds nuw (i8, ptr @slurm_cgroup_conf, i64 16), align 8, !range !8, !noundef !9
  %8 = trunc nuw i8 %7 to i1
  tail call void @add_key_pair_bool(ptr noundef %1, ptr noundef nonnull @.str.18, i1 noundef zeroext %8) #12
  %9 = load i8, ptr getelementptr inbounds nuw (i8, ptr @slurm_cgroup_conf, i64 17), align 1, !range !8, !noundef !9
  %10 = trunc nuw i8 %9 to i1
  tail call void @add_key_pair_bool(ptr noundef %1, ptr noundef nonnull @.str.19, i1 noundef zeroext %10) #12
  %11 = load float, ptr getelementptr inbounds nuw (i8, ptr @slurm_cgroup_conf, i64 20), align 4
  %12 = fpext float %11 to double
  tail call void (ptr, ptr, ptr, ...) @add_key_pair(ptr noundef %1, ptr noundef nonnull @.str.20, ptr noundef nonnull @.str.21, double noundef %12) #12
  %13 = load float, ptr getelementptr inbounds nuw (i8, ptr @slurm_cgroup_conf, i64 24), align 8
  %14 = fpext float %13 to double
  tail call void (ptr, ptr, ptr, ...) @add_key_pair(ptr noundef %1, ptr noundef nonnull @.str.22, ptr noundef nonnull @.str.21, double noundef %14) #12
  %15 = load i64, ptr getelementptr inbounds nuw (i8, ptr @slurm_cgroup_conf, i64 32), align 8
  tail call void (ptr, ptr, ptr, ...) @add_key_pair(ptr noundef %1, ptr noundef nonnull @.str.23, ptr noundef nonnull @.str.24, i64 noundef %15) #12
  %16 = load i8, ptr getelementptr inbounds nuw (i8, ptr @slurm_cgroup_conf, i64 40), align 8, !range !8, !noundef !9
  %17 = trunc nuw i8 %16 to i1
  tail call void @add_key_pair_bool(ptr noundef %1, ptr noundef nonnull @.str.25, i1 noundef zeroext %17) #12
  %18 = load float, ptr getelementptr inbounds nuw (i8, ptr @slurm_cgroup_conf, i64 44), align 4
  %19 = fpext float %18 to double
  tail call void (ptr, ptr, ptr, ...) @add_key_pair(ptr noundef %1, ptr noundef nonnull @.str.26, ptr noundef nonnull @.str.21, double noundef %19) #12
  %20 = load float, ptr getelementptr inbounds nuw (i8, ptr @slurm_cgroup_conf, i64 48), align 8
  %21 = fpext float %20 to double
  tail call void (ptr, ptr, ptr, ...) @add_key_pair(ptr noundef %1, ptr noundef nonnull @.str.27, ptr noundef nonnull @.str.21, double noundef %21) #12
  %22 = load i8, ptr getelementptr inbounds nuw (i8, ptr @slurm_cgroup_conf, i64 64), align 8, !range !8, !noundef !9
  %23 = trunc nuw i8 %22 to i1
  tail call void @add_key_pair_bool(ptr noundef %1, ptr noundef nonnull @.str.28, i1 noundef zeroext %23) #12
  %24 = load ptr, ptr getelementptr inbounds nuw (i8, ptr @slurm_cgroup_conf, i64 72), align 8
  tail call void (ptr, ptr, ptr, ...) @add_key_pair(ptr noundef %1, ptr noundef nonnull @.str.29, ptr noundef nonnull @.str.17, ptr noundef %24) #12
  %25 = load i8, ptr getelementptr inbounds nuw (i8, ptr @slurm_cgroup_conf, i64 80), align 8, !range !8, !noundef !9
  %26 = trunc nuw i8 %25 to i1
  tail call void @add_key_pair_bool(ptr noundef %1, ptr noundef nonnull @.str.30, i1 noundef zeroext %26) #12
  %27 = load i8, ptr getelementptr inbounds nuw (i8, ptr @slurm_cgroup_conf, i64 81), align 1, !range !8, !noundef !9
  %28 = trunc nuw i8 %27 to i1
  tail call void @add_key_pair_bool(ptr noundef %1, ptr noundef nonnull @.str.31, i1 noundef zeroext %28) #12
  %29 = load i8, ptr getelementptr inbounds nuw (i8, ptr @slurm_cgroup_conf, i64 82), align 2, !range !8, !noundef !9
  %30 = trunc nuw i8 %29 to i1
  tail call void @add_key_pair_bool(ptr noundef %1, ptr noundef nonnull @.str.32, i1 noundef zeroext %30) #12
  %31 = load i64, ptr getelementptr inbounds nuw (i8, ptr @slurm_cgroup_conf, i64 56), align 8
  %.not41 = icmp eq i64 %31, -2
  br i1 %.not41, label %33, label %32

32:                                               ; preds = %5
  tail call void (ptr, ptr, ptr, ...) @add_key_pair(ptr noundef %1, ptr noundef nonnull @.str.33, ptr noundef nonnull @.str.34, i64 noundef %31) #12
  br label %34

33:                                               ; preds = %5
  tail call void (ptr, ptr, ptr, ...) @add_key_pair(ptr noundef %1, ptr noundef nonnull @.str.33, ptr noundef nonnull @.str.35) #12
  br label %34

34:                                               ; preds = %33, %32
  %35 = load i64, ptr getelementptr inbounds nuw (i8, ptr @slurm_cgroup_conf, i64 88), align 8
  tail call void (ptr, ptr, ptr, ...) @add_key_pair(ptr noundef %1, ptr noundef nonnull @.str.36, ptr noundef nonnull @.str.37, i64 noundef %35) #12
  %36 = tail call i32 @pthread_rwlock_unlock(ptr noundef nonnull @cg_conf_lock) #12
  %.not42 = icmp eq i32 %36, 0
  br i1 %.not42, label %39, label %37

37:                                               ; preds = %34
  %38 = tail call ptr @__errno_location() #13
  store i32 %36, ptr %38, align 4
  tail call void (ptr, ...) @fatal_abort(ptr noundef nonnull @.str.14, ptr noundef nonnull @__func__.cgroup_get_conf_list) #14
  unreachable

39:                                               ; preds = %34
  tail call void @list_sort(ptr noundef %1, ptr noundef nonnull @sort_key_pairs) #12
  ret ptr %1
}